; ModuleID = 'source-C-CXX/9/202.cpp'
source_filename = "source-C-CXX/9/202.cpp"
target datalayout = "e-m:e-p270:32:32-p271:32:32-p272:64:64-i64:64-f80:128-n8:16:32:64-S128"
target triple = "x86_64-pc-linux-gnu"

%"class.std::ios_base::Init" = type { i8 }
%"class.std::basic_istream" = type { i32 (...)**, i64, %"class.std::basic_ios" }
%"class.std::basic_ios" = type { %"class.std::ios_base", %"class.std::basic_ostream"*, i8, i8, %"class.std::basic_streambuf"*, %"class.std::ctype"*, %"class.std::num_put"*, %"class.std::num_get"* }
%"class.std::ios_base" = type { i32 (...)**, i64, i64, i32, i32, i32, %"struct.std::ios_base::_Callback_list"*, %"struct.std::ios_base::_Words", [8 x %"struct.std::ios_base::_Words"], i32, %"struct.std::ios_base::_Words"*, %"class.std::locale" }
%"struct.std::ios_base::_Callback_list" = type { %"struct.std::ios_base::_Callback_list"*, void (i32, %"class.std::ios_base"*, i32)*, i32, i32 }
%"struct.std::ios_base::_Words" = type { i8*, i64 }
%"class.std::locale" = type { %"class.std::locale::_Impl"* }
%"class.std::locale::_Impl" = type { i32, %"class.std::locale::facet"**, i64, %"class.std::locale::facet"**, i8** }
%"class.std::locale::facet" = type <{ i32 (...)**, i32, [4 x i8] }>
%"class.std::basic_ostream" = type { i32 (...)**, %"class.std::basic_ios" }
%"class.std::basic_streambuf" = type { i32 (...)**, i8*, i8*, i8*, i8*, i8*, i8*, %"class.std::locale" }
%"class.std::ctype" = type <{ %"class.std::locale::facet.base", [4 x i8], %struct.__locale_struct*, i8, [7 x i8], i32*, i32*, i16*, i8, [256 x i8], [256 x i8], i8, [6 x i8] }>
%"class.std::locale::facet.base" = type <{ i32 (...)**, i32 }>
%struct.__locale_struct = type { [13 x %struct.__locale_data*], i16*, i32*, i32*, [13 x i8*] }
%struct.__locale_data = type opaque
%"class.std::num_put" = type { %"class.std::locale::facet.base", [4 x i8] }
%"class.std::num_get" = type { %"class.std::locale::facet.base", [4 x i8] }

@_ZStL8__ioinit = internal global %"class.std::ios_base::Init" zeroinitializer, align 1
@__dso_handle = external hidden global i8
@_ZSt3cin = external global %"class.std::basic_istream", align 8
@_ZSt4cout = external global %"class.std::basic_ostream", align 8
@llvm.global_ctors = appending global [1 x { i32, void ()*, i8* }] [{ i32, void ()*, i8* } { i32 65535, void ()* @_GLOBAL__sub_I_202.cpp, i8* null }]

declare void @_ZNSt8ios_base4InitC1Ev(%"class.std::ios_base::Init"* nonnull align 1 dereferenceable(1)) unnamed_addr #0

; Function Attrs: nounwind
declare void @_ZNSt8ios_base4InitD1Ev(%"class.std::ios_base::Init"* nonnull align 1 dereferenceable(1)) unnamed_addr #1

; Function Attrs: nofree nounwind
declare i32 @__cxa_atexit(void (i8*)*, i8*, i8*) local_unnamed_addr #2

; Function Attrs: mustprogress norecurse sspstrong uwtable
define dso_local i32 @main() local_unnamed_addr #3 {
  %1 = alloca [26 x i32], align 16
  %2 = alloca [26 x i32], align 16
  %3 = alloca i32, align 4
  %4 = bitcast [26 x i32]* %1 to i8*
  call void @llvm.lifetime.start.p0i8(i64 104, i8* nonnull %4) #8
  %5 = bitcast [26 x i32]* %2 to i8*
  call void @llvm.lifetime.start.p0i8(i64 104, i8* nonnull %5) #8
  %6 = bitcast i32* %3 to i8*
  call void @llvm.lifetime.start.p0i8(i64 4, i8* nonnull %6) #8
  %7 = call nonnull align 8 dereferenceable(16) %"class.std::basic_istream"* @_ZNSirsERi(%"class.std::basic_istream"* nonnull align 8 dereferenceable(16) @_ZSt3cin, i32* nonnull align 4 dereferenceable(4) %3)
  %8 = getelementptr inbounds [26 x i32], [26 x i32]* %2, i64 0, i64 0
  store i32 0, i32* %8, align 16, !tbaa !5
  %9 = getelementptr inbounds [26 x i32], [26 x i32]* %1, i64 0, i64 0
  store i32 0, i32* %9, align 16, !tbaa !5
  %10 = load i32, i32* %3, align 4, !tbaa !5
  %11 = icmp slt i32 %10, 1
  br i1 %11, label %156, label %89

12:                                               ; preds = %138
  %13 = icmp slt i32 %143, 1
  br i1 %13, label %156, label %14

14:                                               ; preds = %12
  %15 = add nuw i32 %143, 1
  %16 = zext i32 %15 to i64
  %17 = add nsw i64 %16, -1
  %18 = icmp ult i64 %17, 8
  br i1 %18, label %86, label %19

19:                                               ; preds = %14
  %20 = and i64 %17, -8
  %21 = or i64 %20, 1
  %22 = add nsw i64 %20, -8
  %23 = lshr exact i64 %22, 3
  %24 = add nuw nsw i64 %23, 1
  %25 = and i64 %24, 1
  %26 = icmp eq i64 %22, 0
  br i1 %26, label %61, label %27

27:                                               ; preds = %19
  %28 = and i64 %24, 4611686018427387902
  br label %29

29:                                               ; preds = %29, %27
  %30 = phi i64 [ 0, %27 ], [ %56, %29 ]
  %31 = phi <4 x i32> [ zeroinitializer, %27 ], [ %54, %29 ]
  %32 = phi <4 x i32> [ zeroinitializer, %27 ], [ %55, %29 ]
  %33 = phi i64 [ %28, %27 ], [ %57, %29 ]
  %34 = or i64 %30, 1
  %35 = getelementptr inbounds [26 x i32], [26 x i32]* %2, i64 0, i64 %34
  %36 = bitcast i32* %35 to <4 x i32>*
  %37 = load <4 x i32>, <4 x i32>* %36, align 4, !tbaa !5
  %38 = getelementptr inbounds i32, i32* %35, i64 4
  %39 = bitcast i32* %38 to <4 x i32>*
  %40 = load <4 x i32>, <4 x i32>* %39, align 4, !tbaa !5
  %41 = icmp slt <4 x i32> %31, %37
  %42 = icmp slt <4 x i32> %32, %40
  %43 = select <4 x i1> %41, <4 x i32> %37, <4 x i32> %31
  %44 = select <4 x i1> %42, <4 x i32> %40, <4 x i32> %32
  %45 = or i64 %30, 9
  %46 = getelementptr inbounds [26 x i32], [26 x i32]* %2, i64 0, i64 %45
  %47 = bitcast i32* %46 to <4 x i32>*
  %48 = load <4 x i32>, <4 x i32>* %47, align 4, !tbaa !5
  %49 = getelementptr inbounds i32, i32* %46, i64 4
  %50 = bitcast i32* %49 to <4 x i32>*
  %51 = load <4 x i32>, <4 x i32>* %50, align 4, !tbaa !5
  %52 = icmp slt <4 x i32> %43, %48
  %53 = icmp slt <4 x i32> %44, %51
  %54 = select <4 x i1> %52, <4 x i32> %48, <4 x i32> %43
  %55 = select <4 x i1> %53, <4 x i32> %51, <4 x i32> %44
  %56 = add nuw i64 %30, 16
  %57 = add i64 %33, -2
  %58 = icmp eq i64 %57, 0
  br i1 %58, label %59, label %29, !llvm.loop !9

59:                                               ; preds = %29
  %60 = or i64 %56, 1
  br label %61

61:                                               ; preds = %59, %19
  %62 = phi <4 x i32> [ undef, %19 ], [ %54, %59 ]
  %63 = phi <4 x i32> [ undef, %19 ], [ %55, %59 ]
  %64 = phi i64 [ 1, %19 ], [ %60, %59 ]
  %65 = phi <4 x i32> [ zeroinitializer, %19 ], [ %54, %59 ]
  %66 = phi <4 x i32> [ zeroinitializer, %19 ], [ %55, %59 ]
  %67 = icmp eq i64 %25, 0
  br i1 %67, label %79, label %68

68:                                               ; preds = %61
  %69 = getelementptr inbounds [26 x i32], [26 x i32]* %2, i64 0, i64 %64
  %70 = bitcast i32* %69 to <4 x i32>*
  %71 = load <4 x i32>, <4 x i32>* %70, align 4, !tbaa !5
  %72 = getelementptr inbounds i32, i32* %69, i64 4
  %73 = bitcast i32* %72 to <4 x i32>*
  %74 = load <4 x i32>, <4 x i32>* %73, align 4, !tbaa !5
  %75 = icmp slt <4 x i32> %66, %74
  %76 = select <4 x i1> %75, <4 x i32> %74, <4 x i32> %66
  %77 = icmp slt <4 x i32> %65, %71
  %78 = select <4 x i1> %77, <4 x i32> %71, <4 x i32> %65
  br label %79

79:                                               ; preds = %61, %68
  %80 = phi <4 x i32> [ %62, %61 ], [ %78, %68 ]
  %81 = phi <4 x i32> [ %63, %61 ], [ %76, %68 ]
  %82 = icmp sgt <4 x i32> %80, %81
  %83 = select <4 x i1> %82, <4 x i32> %80, <4 x i32> %81
  %84 = call i32 @llvm.vector.reduce.smax.v4i32(<4 x i32> %83)
  %85 = icmp eq i64 %17, %20
  br i1 %85, label %156, label %86

86:                                               ; preds = %14, %79
  %87 = phi i64 [ 1, %14 ], [ %21, %79 ]
  %88 = phi i32 [ 0, %14 ], [ %84, %79 ]
  br label %147

89:                                               ; preds = %0, %138
  %90 = phi i64 [ %146, %138 ], [ 0, %0 ]
  %91 = phi i64 [ %142, %138 ], [ 1, %0 ]
  %92 = getelementptr inbounds [26 x i32], [26 x i32]* %1, i64 0, i64 %91
  %93 = call nonnull align 8 dereferenceable(16) %"class.std::basic_istream"* @_ZNSirsERi(%"class.std::basic_istream"* nonnull align 8 dereferenceable(16) @_ZSt3cin, i32* nonnull align 4 dereferenceable(4) %92)
  %94 = icmp ugt i64 %91, 1
  br i1 %94, label %95, label %138

95:                                               ; preds = %89
  %96 = load i32, i32* %92, align 4, !tbaa !5
  %97 = and i64 %90, 1
  %98 = icmp eq i64 %90, 1
  br i1 %98, label %122, label %99

99:                                               ; preds = %95
  %100 = and i64 %90, -2
  br label %101

101:                                              ; preds = %193, %99
  %102 = phi i64 [ %91, %99 ], [ %195, %193 ]
  %103 = phi i32 [ 0, %99 ], [ %194, %193 ]
  %104 = phi i64 [ %100, %99 ], [ %196, %193 ]
  %105 = add i64 %102, 4294967295
  %106 = and i64 %105, 4294967295
  %107 = getelementptr inbounds [26 x i32], [26 x i32]* %1, i64 0, i64 %106
  %108 = load i32, i32* %107, align 4, !tbaa !5
  %109 = icmp sgt i32 %96, %108
  br i1 %109, label %115, label %110

110:                                              ; preds = %101
  %111 = getelementptr inbounds [26 x i32], [26 x i32]* %2, i64 0, i64 %106
  %112 = load i32, i32* %111, align 4, !tbaa !5
  %113 = icmp sgt i32 %103, %112
  %114 = select i1 %113, i32 %103, i32 %112
  br label %115

115:                                              ; preds = %110, %101
  %116 = phi i32 [ %103, %101 ], [ %114, %110 ]
  %117 = add i64 %102, 4294967294
  %118 = and i64 %117, 4294967295
  %119 = getelementptr inbounds [26 x i32], [26 x i32]* %1, i64 0, i64 %118
  %120 = load i32, i32* %119, align 4, !tbaa !5
  %121 = icmp sgt i32 %96, %120
  br i1 %121, label %193, label %188

122:                                              ; preds = %193, %95
  %123 = phi i32 [ undef, %95 ], [ %194, %193 ]
  %124 = phi i64 [ %91, %95 ], [ %195, %193 ]
  %125 = phi i32 [ 0, %95 ], [ %194, %193 ]
  %126 = icmp eq i64 %97, 0
  br i1 %126, label %138, label %127

127:                                              ; preds = %122
  %128 = add i64 %124, 4294967295
  %129 = and i64 %128, 4294967295
  %130 = getelementptr inbounds [26 x i32], [26 x i32]* %1, i64 0, i64 %129
  %131 = load i32, i32* %130, align 4, !tbaa !5
  %132 = icmp sgt i32 %96, %131
  br i1 %132, label %138, label %133

133:                                              ; preds = %127
  %134 = getelementptr inbounds [26 x i32], [26 x i32]* %2, i64 0, i64 %129
  %135 = load i32, i32* %134, align 4, !tbaa !5
  %136 = icmp sgt i32 %125, %135
  %137 = select i1 %136, i32 %125, i32 %135
  br label %138

138:                                              ; preds = %122, %127, %133, %89
  %139 = phi i32 [ 0, %89 ], [ %123, %122 ], [ %125, %127 ], [ %137, %133 ]
  %140 = add nsw i32 %139, 1
  %141 = getelementptr inbounds [26 x i32], [26 x i32]* %2, i64 0, i64 %91
  store i32 %140, i32* %141, align 4, !tbaa !5
  %142 = add nuw nsw i64 %91, 1
  %143 = load i32, i32* %3, align 4, !tbaa !5
  %144 = sext i32 %143 to i64
  %145 = icmp slt i64 %91, %144
  %146 = add i64 %90, 1
  br i1 %145, label %89, label %12, !llvm.loop !12

147:                                              ; preds = %86, %147
  %148 = phi i64 [ %154, %147 ], [ %87, %86 ]
  %149 = phi i32 [ %153, %147 ], [ %88, %86 ]
  %150 = getelementptr inbounds [26 x i32], [26 x i32]* %2, i64 0, i64 %148
  %151 = load i32, i32* %150, align 4, !tbaa !5
  %152 = icmp slt i32 %149, %151
  %153 = select i1 %152, i32 %151, i32 %149
  %154 = add nuw nsw i64 %148, 1
  %155 = icmp eq i64 %154, %16
  br i1 %155, label %156, label %147, !llvm.loop !13

156:                                              ; preds = %147, %79, %0, %12
  %157 = phi i32 [ 0, %12 ], [ 0, %0 ], [ %84, %79 ], [ %153, %147 ]
  %158 = call nonnull align 8 dereferenceable(8) %"class.std::basic_ostream"* @_ZNSolsEi(%"class.std::basic_ostream"* nonnull align 8 dereferenceable(8) @_ZSt4cout, i32 %157)
  %159 = bitcast %"class.std::basic_ostream"* %158 to i8**
  %160 = load i8*, i8** %159, align 8, !tbaa !15
  %161 = getelementptr i8, i8* %160, i64 -24
  %162 = bitcast i8* %161 to i64*
  %163 = load i64, i64* %162, align 8
  %164 = bitcast %"class.std::basic_ostream"* %158 to i8*
  %165 = add nsw i64 %163, 240
  %166 = getelementptr inbounds i8, i8* %164, i64 %165
  %167 = bitcast i8* %166 to %"class.std::ctype"**
  %168 = load %"class.std::ctype"*, %"class.std::ctype"** %167, align 8, !tbaa !17
  %169 = icmp eq %"class.std::ctype"* %168, null
  br i1 %169, label %170, label %171

170:                                              ; preds = %156
  call void @_ZSt16__throw_bad_castv() #9
  unreachable

171:                                              ; preds = %156
  %172 = getelementptr inbounds %"class.std::ctype", %"class.std::ctype"* %168, i64 0, i32 8
  %173 = load i8, i8* %172, align 8, !tbaa !21
  %174 = icmp eq i8 %173, 0
  br i1 %174, label %178, label %175

175:                                              ; preds = %171
  %176 = getelementptr inbounds %"class.std::ctype", %"class.std::ctype"* %168, i64 0, i32 9, i64 10
  %177 = load i8, i8* %176, align 1, !tbaa !23
  br label %184

178:                                              ; preds = %171
  call void @_ZNKSt5ctypeIcE13_M_widen_initEv(%"class.std::ctype"* nonnull align 8 dereferenceable(570) %168)
  %179 = bitcast %"class.std::ctype"* %168 to i8 (%"class.std::ctype"*, i8)***
  %180 = load i8 (%"class.std::ctype"*, i8)**, i8 (%"class.std::ctype"*, i8)*** %179, align 8, !tbaa !15
  %181 = getelementptr inbounds i8 (%"class.std::ctype"*, i8)*, i8 (%"class.std::ctype"*, i8)** %180, i64 6
  %182 = load i8 (%"class.std::ctype"*, i8)*, i8 (%"class.std::ctype"*, i8)** %181, align 8
  %183 = call signext i8 %182(%"class.std::ctype"* nonnull align 8 dereferenceable(570) %168, i8 signext 10)
  br label %184

184:                                              ; preds = %175, %178
  %185 = phi i8 [ %177, %175 ], [ %183, %178 ]
  %186 = call nonnull align 8 dereferenceable(8) %"class.std::basic_ostream"* @_ZNSo3putEc(%"class.std::basic_ostream"* nonnull align 8 dereferenceable(8) %158, i8 signext %185)
  %187 = call nonnull align 8 dereferenceable(8) %"class.std::basic_ostream"* @_ZNSo5flushEv(%"class.std::basic_ostream"* nonnull align 8 dereferenceable(8) %186)
  call void @llvm.lifetime.end.p0i8(i64 4, i8* nonnull %6) #8
  call void @llvm.lifetime.end.p0i8(i64 104, i8* nonnull %5) #8
  call void @llvm.lifetime.end.p0i8(i64 104, i8* nonnull %4) #8
  ret i32 0

188:                                              ; preds = %115
  %189 = getelementptr inbounds [26 x i32], [26 x i32]* %2, i64 0, i64 %118
  %190 = load i32, i32* %189, align 4, !tbaa !5
  %191 = icmp sgt i32 %116, %190
  %192 = select i1 %191, i32 %116, i32 %190
  br label %193

193:                                              ; preds = %188, %115
  %194 = phi i32 [ %116, %115 ], [ %192, %188 ]
  %195 = add nsw i64 %102, -2
  %196 = add i64 %104, -2
  %197 = icmp eq i64 %196, 0
  br i1 %197, label %122, label %101, !llvm.loop !24
}

; Function Attrs: argmemonly mustprogress nofree nosync nounwind willreturn
declare void @llvm.lifetime.start.p0i8(i64 immarg, i8* nocapture) #4

declare nonnull align 8 dereferenceable(16) %"class.std::basic_istream"* @_ZNSirsERi(%"class.std::basic_istream"* nonnull align 8 dereferenceable(16), i32* nonnull align 4 dereferenceable(4)) local_unnamed_addr #0

declare nonnull align 8 dereferenceable(8) %"class.std::basic_ostream"* @_ZNSolsEi(%"class.std::basic_ostream"* nonnull align 8 dereferenceable(8), i32) local_unnamed_addr #0

; Function Attrs: argmemonly mustprogress nofree nosync nounwind willreturn
declare void @llvm.lifetime.end.p0i8(i64 immarg, i8* nocapture) #4

declare nonnull align 8 dereferenceable(8) %"class.std::basic_ostream"* @_ZNSo3putEc(%"class.std::basic_ostream"* nonnull align 8 dereferenceable(8), i8 signext) local_unnamed_addr #0

declare nonnull align 8 dereferenceable(8) %"class.std::basic_ostream"* @_ZNSo5flushEv(%"class.std::basic_ostream"* nonnull align 8 dereferenceable(8)) local_unnamed_addr #0

; Function Attrs: noreturn
declare void @_ZSt16__throw_bad_castv() local_unnamed_addr #5

declare void @_ZNKSt5ctypeIcE13_M_widen_initEv(%"class.std::ctype"* nonnull align 8 dereferenceable(570)) local_unnamed_addr #0

; Function Attrs: sspstrong uwtable
define internal void @_GLOBAL__sub_I_202.cpp() #6 section ".text.startup" {
  tail call void @_ZNSt8ios_base4InitC1Ev(%"class.std::ios_base::Init"* nonnull align 1 dereferenceable(1) @_ZStL8__ioinit)
  %1 = tail call i32 @__cxa_atexit(void (i8*)* bitcast (void (%"class.std::ios_base::Init"*)* @_ZNSt8ios_base4InitD1Ev to void (i8*)*), i8* getelementptr inbounds (%"class.std::ios_base::Init", %"class.std::ios_base::Init"* @_ZStL8__ioinit, i64 0, i32 0), i8* nonnull @__dso_handle) #8
  ret void
}

; Function Attrs: nofree nosync nounwind readnone willreturn
declare i32 @llvm.vector.reduce.smax.v4i32(<4 x i32>) #7


!llvm.module.flags = !{!0, !1, !2, !3}
!llvm.ident = !{!4}

!0 = !{i32 1, !"wchar_size", i32 4}
!1 = !{i32 7, !"PIC Level", i32 2}
!2 = !{i32 7, !"PIE Level", i32 2}
!3 = !{i32 7, !"uwtable", i32 1}
!4 = !{!"clang version 13.0.0"}
!5 = !{!6, !6, i64 0}
!6 = !{!"int", !7, i64 0}
!7 = !{!"omnipotent char", !8, i64 0}
!8 = !{!"Simple C++ TBAA"}
!9 = distinct !{!9, !10, !11}
!10 = !{!"llvm.loop.mustprogress"}
!11 = !{!"llvm.loop.isvectorized", i32 1}
!12 = distinct !{!12, !10}
!13 = distinct !{!13, !10, !14, !11}
!14 = !{!"llvm.loop.unroll.runtime.disable"}
!15 = !{!16, !16, i64 0}
!16 = !{!"vtable pointer", !8, i64 0}
!17 = !{!18, !19, i64 240}
!18 = !{!"_ZTSSt9basic_iosIcSt11char_traitsIcEE", !19, i64 216, !7, i64 224, !20, i64 225, !19, i64 232, !19, i64 240, !19, i64 248, !19, i64 256}
!19 = !{!"any pointer", !7, i64 0}
!20 = !{!"bool", !7, i64 0}
!21 = !{!22, !7, i64 56}
!22 = !{!"_ZTSSt5ctypeIcE", !19, i64 16, !20, i64 24, !19, i64 32, !19, i64 40, !19, i64 48, !7, i64 56, !7, i64 57, !7, i64 313, !7, i64 569}
!23 = !{!7, !7, i64 0}
!24 = distinct !{!24, !10}
